; Function Attrs: nounwind uwtable
define void @Java_com_sun_java_swing_plaf_gtk_GTKEngine_native_1paint_1extension(ptr noundef %0, ptr nocapture noundef readnone %1, i32 noundef %2, i32 noundef %3, i32 noundef %4, ptr noundef %5, i32 noundef %6, i32 noundef %7, i32 noundef %8, i32 noundef %9, i32 noundef %10) local_unnamed_addr #0 {
  %12 = load ptr, ptr @gtk, align 8
  %13 = getelementptr inbounds i8, ptr %12, i64 248
  %14 = load ptr, ptr %13, align 8
  tail call void %14() #4
  %15 = load ptr, ptr @gtk, align 8
  %16 = getelementptr inbounds i8, ptr %15, i64 80
  %17 = load ptr, ptr %16, align 8
  %18 = load ptr, ptr %0, align 8
  %19 = getelementptr inbounds i8, ptr %18, i64 1312
  %20 = load ptr, ptr %19, align 8
  %21 = tail call i32 %20(ptr noundef nonnull %0, ptr noundef %5) #4
  %spec.store.select.i = tail call i32 @llvm.smin.i32(i32 %21, i32 127)
  tail call void @llvm.memset.p0.i64(ptr noundef nonnull align 16 dereferenceable(382) @conversionBuffer, i8 0, i64 382, i1 false)
  %22 = load ptr, ptr %0, align 8
  %23 = getelementptr inbounds i8, ptr %22, i64 1768
  %24 = load ptr, ptr %23, align 8
  tail call void %24(ptr noundef nonnull %0, ptr noundef %5, i32 noundef 0, i32 noundef %spec.store.select.i, ptr noundef nonnull @conversionBuffer) #4
  tail call void %17(i32 noundef %2, i32 noundef %3, i32 noundef %4, ptr noundef nonnull @conversionBuffer, i32 noundef %6, i32 noundef %7, i32 noundef %8, i32 noundef %9, i32 noundef %10) #4
  %25 = load ptr, ptr @gtk, align 8
  %26 = getelementptr inbounds i8, ptr %25, i64 256
  %27 = load ptr, ptr %26, align 8
  tail call void %27() #4
  ret void
}